Certificate:
    Data:
        Version: 3 (0x2)
        Serial Number: 4096 (0x1000)
    Signature Algorithm: sha256WithRSAEncryption
        Issuer: C=US, ST=NY, L=Syr, O=VPNLAB, OU=VPNLABCA, CN=sachdev.com
        Validity
            Not Before: May  1 06:56:31 2019 GMT
            Not After : Apr 30 06:56:31 2020 GMT
        Subject: C=US, ST=NY, O=VPNLAB, OU=VPNLABSERVER, CN=chiragvpnserver.com
        Subject Public Key Info:
            Public Key Algorithm: rsaEncryption
                Public-Key: (1024 bit)
                Modulus:
                    00:b0:f6:18:ec:cf:d2:79:1d:17:7a:1a:23:77:ce:
                    11:39:9b:58:6c:12:8f:0f:55:dc:06:00:02:b9:c8:
                    9f:60:2d:fc:a6:f7:3c:40:cd:38:08:8f:be:9a:1c:
                    ac:09:9b:8b:0d:4c:f6:4b:af:18:1c:6c:32:25:d3:
                    2a:cc:5d:31:dc:bc:96:83:22:26:21:1a:09:98:a1:
                    60:35:33:e2:6a:99:8e:1e:89:37:29:24:98:3c:19:
                    80:a4:7f:f2:fe:ca:f9:31:17:c7:aa:8f:64:4d:e4:
                    2e:01:f0:f5:1e:8f:ac:8e:46:8c:75:b7:49:31:73:
                    fd:d9:73:8d:44:3e:aa:23:e7
                Exponent: 65537 (0x10001)
        X509v3 extensions:
            X509v3 Basic Constraints: 
                CA:FALSE
            Netscape Comment: 
                OpenSSL Generated Certificate
            X509v3 Subject Key Identifier: 
                54:FF:B1:C1:23:E3:CB:E3:91:8A:68:F9:4E:A8:29:8A:EB:27:48:E0
            X509v3 Authority Key Identifier: 
                keyid:11:61:FE:2B:BE:4E:FE:BB:8E:AE:80:E2:61:64:5E:1D:84:D5:06:D8

    Signature Algorithm: sha256WithRSAEncryption
         45:0f:41:80:a8:e6:b6:a7:80:26:dd:12:c3:f7:35:a8:86:6d:
         bf:1b:b5:c8:9e:9c:92:c9:2c:a8:40:cf:ff:3a:be:a0:f1:05:
         d0:62:31:7a:9f:c1:30:90:3d:62:26:f7:bc:65:39:78:b0:16:
         f5:74:fe:b9:06:35:d3:17:1c:05:22:7e:fa:17:6e:ab:57:15:
         41:c4:cf:59:8c:ef:51:28:88:a3:8a:18:09:81:8b:fd:65:13:
         5e:ac:2d:02:ca:5f:53:df:cf:73:00:d8:b2:cc:ea:cf:0a:ab:
         60:16:bc:f4:1f:10:86:ee:6a:4d:c4:42:90:b3:fb:34:c6:f0:
         c1:79:7d:bd:e3:f6:81:f0:b5:46:d3:a5:e4:ee:56:72:6e:61:
         ad:d9:e9:43:e4:05:b2:9d:df:35:16:6b:ac:92:77:24:e8:2c:
         e6:f4:43:73:1e:fa:a9:ad:8b:47:96:d8:d9:97:98:4d:9a:90:
         cd:95:36:f7:15:b1:4e:56:0a:4e:96:99:94:dc:ea:c8:67:91:
         24:45:7d:6f:3d:3d:db:ad:2a:f2:b1:07:4e:fc:9f:49:45:0e:
         a7:89:03:20:2d:de:40:92:d6:86:5e:d1:eb:e4:45:7e:88:a4:
         82:21:8e:07:cd:db:d2:07:ff:04:29:da:f7:3c:f9:c4:53:9b:
         bd:6a:4a:93
-----BEGIN CERTIFICATE-----
MIIDNTCCAh2gAwIBAgICEAAwDQYJKoZIhvcNAQELBQAwYjELMAkGA1UEBhMCVVMx
CzAJBgNVBAgMAk5ZMQwwCgYDVQQHDANTeXIxDzANBgNVBAoMBlZQTkxBQjERMA8G
A1UECwwIVlBOTEFCQ0ExFDASBgNVBAMMC3NhY2hkZXYuY29tMB4XDTE5MDUwMTA2
NTYzMVoXDTIwMDQzMDA2NTYzMVowYDELMAkGA1UEBhMCVVMxCzAJBgNVBAgMAk5Z
MQ8wDQYDVQQKDAZWUE5MQUIxFTATBgNVBAsMDFZQTkxBQlNFUlZFUjEcMBoGA1UE
AwwTY2hpcmFndnBuc2VydmVyLmNvbTCBnzANBgkqhkiG9w0BAQEFAAOBjQAwgYkC
gYEAsPYY7M/SeR0Xehojd84ROZtYbBKPD1XcBgACucifYC38pvc8QM04CI++mhys
CZuLDUz2S68YHGwyJdMqzF0x3LyWgyImIRoJmKFgNTPiapmOHok3KSSYPBmApH/y
/sr5MRfHqo9kTeQuAfD1Ho+sjkaMdbdJMXP92XONRD6qI+cCAwEAAaN7MHkwCQYD
VR0TBAIwADAsBglghkgBhvhCAQ0EHxYdT3BlblNTTCBHZW5lcmF0ZWQgQ2VydGlm
aWNhdGUwHQYDVR0OBBYEFFT/scEj48vjkYpo+U6oKYrrJ0jgMB8GA1UdIwQYMBaA
FBFh/iu+Tv67jq6A4mFkXh2E1QbYMA0GCSqGSIb3DQEBCwUAA4IBAQBFD0GAqOa2
p4Am3RLD9zWohm2/G7XInpySySyoQM//Or6g8QXQYjF6n8EwkD1iJve8ZTl4sBb1
dP65BjXTFxwFIn76F26rVxVBxM9ZjO9RKIijihgJgYv9ZRNerC0Cyl9T389zANiy
zOrPCqtgFrz0HxCG7mpNxEKQs/s0xvDBeX294/aB8LVG06Xk7lZybmGt2elD5AWy
nd81Fmusknck6Czm9ENzHvqprYtHltjZl5hNmpDNlTb3FbFOVgpOlpmU3OrIZ5Ek
RX1vPT3brSrysQdO/J9JRQ6niQMgLd5AktaGXtHr5EV+iKSCIY4HzdvSB/8EKdr3
PPnEU5u9akqT
-----END CERTIFICATE-----
