-----BEGIN RSA PRIVATE KEY-----
Proc-Type: 4,ENCRYPTED
DEK-Info: AES-128-CBC,C22ED914464D1684C4FFC944F2659C0A

ye6NR0Z9ZXV3nRiN2pOKmEM3XZzvd4HJ+rFJuxcMiVAO3lZtcqscqmyhzy8Gjstn
WT3iVLMIMMsRvlOegXR59tuI6/MnbnmnhCxLVSq5Uz727glpiD0SWXgHH8Yot6j+
UAaqYC83OjaFjn0NpY9lLObAbk1q2P2VwsrS9LveW8puE3AmaekTc9SBvvoYnusq
zgTVK9sXLU0QWNbkB6TfPm6VQbr3GVXVRRJPEPO9DK/3NIfnWvOdvBM7YpyiGQF+
rwbls02Z9pknfeG96SfEtFKp8sT75YwdGYPm/5cKjdS+kjWy4O26hbREdo4n68YL
Z8dpwwOoQNKH7iMCat0TA6wprPwHAgOxWom0s+ydHCBQFfhiQywZ/kdfUjb1OOMV
3lLM0iUfUNTeL6B6YRjO/7yZyrfq2RJroJMCp9X97TcsBLoGWehO11zxL2te25l/
NOBaYknQaQILPcvfps5JkTBzd5WSu77U9OARIXlwMGZ7IwCPqTYu3gi4P9z/97DD
NNuTYcKgsLYdHTW8Eu7yCLxtn7ly5SE4pdlWmYvN2WZb6w/pvbPgNgPYqGvu7TsR
tFkl3hNs+gFdiMUYCbyeMe/0J4z0NVjQlqcBXgb7d88Gk0b2iAe7z+8L62+Lf/IY
X/ryAoCsDwTYRbp4QGZvy1dAwPiUOehW8wA7le9S1Ju6bfHiyL+a2JXl7wEcwb1t
yuS2N9WYvej0EOP5H6NlEIHZox8Lq0MLqZfRHl1A3BXUSD12RSqYSgiz2Q3ynoSU
pXDKKv2LZ89VG7u2IRKJU1mfnfgOAOMn5/gSxozooP4VOZ75Twvzd39C0FJiygBQ
-----END RSA PRIVATE KEY-----
Certificate:
    Data:
        Version: 3 (0x2)
        Serial Number: 4096 (0x1000)
    Signature Algorithm: sha256WithRSAEncryption
        Issuer: C=US, ST=NY, L=Syracuse, O=SEEDLABS, OU=PKI-Lab, CN=Chirag
        Validity
            Not Before: Apr 16 05:06:22 2019 GMT
            Not After : Apr 15 05:06:22 2020 GMT
        Subject: C=US, ST=NY, L=Syracuse, O=SEEDLABS, OU=PKI-LAB, CN=SEEDPKILab2018.com
        Subject Public Key Info:
            Public Key Algorithm: rsaEncryption
                Public-Key: (1024 bit)
                Modulus:
                    00:da:7f:23:8d:74:45:8a:71:9e:87:32:27:81:c3:
                    cd:a2:bc:d3:3c:0b:eb:7e:57:4e:19:50:6b:ab:e7:
                    cd:bf:38:db:1d:52:24:b3:02:94:56:10:e0:0c:e3:
                    65:29:9f:5e:4f:33:10:b8:7f:4a:0b:70:f6:cb:69:
                    26:52:9e:30:2b:48:d5:df:d1:57:3f:0a:2a:bc:66:
                    c4:37:7d:27:63:de:ec:f0:04:f7:81:31:d8:a3:8d:
                    a2:65:78:ef:d9:6f:0a:e6:6d:1e:cd:d4:26:cd:e5:
                    4d:09:9d:ea:7b:9f:c6:6d:cf:02:90:ec:d1:6d:d1:
                    90:8e:67:85:83:a4:52:9e:35
                Exponent: 65537 (0x10001)
        X509v3 extensions:
            X509v3 Basic Constraints: 
                CA:FALSE
            Netscape Comment: 
                OpenSSL Generated Certificate
            X509v3 Subject Key Identifier: 
                D8:64:99:B7:83:2F:6D:BF:CD:69:57:7A:74:FA:27:DC:7F:A5:C2:D0
            X509v3 Authority Key Identifier: 
                keyid:CC:CE:04:2E:AE:24:0A:11:B3:62:DA:91:68:6E:37:4F:A8:A3:41:89

    Signature Algorithm: sha256WithRSAEncryption
         b7:43:b3:dd:af:85:ee:eb:aa:d5:1e:65:54:8b:9d:e3:ca:d0:
         cd:4c:b3:ef:c3:8b:a7:0e:4b:90:69:d8:1f:2b:ac:6f:48:38:
         9e:4e:fc:1f:fa:8c:5e:ae:d6:81:f0:f0:68:64:3c:3f:25:a2:
         32:a5:ea:b1:11:a7:71:41:38:86:fd:95:b3:83:44:88:28:87:
         c1:bc:95:16:d2:4c:d5:0c:8c:df:d1:73:de:a7:52:e2:f7:1e:
         59:09:7b:89:d1:d6:96:57:0d:10:62:1c:8c:7d:15:94:69:db:
         c3:eb:80:de:b4:98:0e:50:90:63:9f:a7:98:7e:1f:79:60:68:
         76:a8:d6:5c:0e:36:9f:12:7d:52:3c:34:82:8b:cd:33:01:e4:
         f3:83:41:46:be:fe:a8:47:b8:a2:bb:2d:2c:35:1d:d2:d6:7f:
         bb:64:cb:71:bd:a6:a7:cb:bc:e4:1e:a9:00:cd:c4:e9:8a:94:
         23:ef:26:d1:1f:cf:22:6d:c3:e3:d0:65:e1:4c:33:e5:92:76:
         92:aa:b9:7b:ff:00:72:a6:ce:46:b8:67:ef:03:22:9e:c5:8e:
         7d:6d:82:fe:06:1e:f3:a4:36:66:68:6f:84:19:b5:85:b6:20:
         65:ce:32:2f:35:a5:f0:da:c2:3d:e0:ed:34:3a:57:aa:6a:33:
         47:c3:e7:b6
-----BEGIN CERTIFICATE-----
MIIDRTCCAi2gAwIBAgICEAAwDQYJKoZIhvcNAQELBQAwYzELMAkGA1UEBhMCVVMx
CzAJBgNVBAgMAk5ZMREwDwYDVQQHDAhTeXJhY3VzZTERMA8GA1UECgwIU0VFRExB
QlMxEDAOBgNVBAsMB1BLSS1MYWIxDzANBgNVBAMMBkNoaXJhZzAeFw0xOTA0MTYw
NTA2MjJaFw0yMDA0MTUwNTA2MjJaMG8xCzAJBgNVBAYTAlVTMQswCQYDVQQIDAJO
WTERMA8GA1UEBwwIU3lyYWN1c2UxETAPBgNVBAoMCFNFRURMQUJTMRAwDgYDVQQL
DAdQS0ktTEFCMRswGQYDVQQDDBJTRUVEUEtJTGFiMjAxOC5jb20wgZ8wDQYJKoZI
hvcNAQEBBQADgY0AMIGJAoGBANp/I410RYpxnocyJ4HDzaK80zwL635XThlQa6vn
zb842x1SJLMClFYQ4AzjZSmfXk8zELh/Sgtw9stpJlKeMCtI1d/RVz8KKrxmxDd9
J2Pe7PAE94Ex2KONomV479lvCuZtHs3UJs3lTQmd6nufxm3PApDs0W3RkI5nhYOk
Up41AgMBAAGjezB5MAkGA1UdEwQCMAAwLAYJYIZIAYb4QgENBB8WHU9wZW5TU0wg
R2VuZXJhdGVkIENlcnRpZmljYXRlMB0GA1UdDgQWBBTYZJm3gy9tv81pV3p0+ifc
f6XC0DAfBgNVHSMEGDAWgBTMzgQuriQKEbNi2pFobjdPqKNBiTANBgkqhkiG9w0B
AQsFAAOCAQEAt0Oz3a+F7uuq1R5lVIud48rQzUyz78OLpw5LkGnYHyusb0g4nk78
H/qMXq7WgfDwaGQ8PyWiMqXqsRGncUE4hv2Vs4NEiCiHwbyVFtJM1QyM39Fz3qdS
4vceWQl7idHWllcNEGIcjH0VlGnbw+uA3rSYDlCQY5+nmH4feWBodqjWXA42nxJ9
Ujw0govNMwHk84NBRr7+qEe4orstLDUd0tZ/u2TLcb2mp8u85B6pAM3E6YqUI+8m
0R/PIm3D49Bl4Uwz5ZJ2kqq5e/8AcqbORrhn7wMinsWOfW2C/gYe86Q2ZmhvhBm1
hbYgZc4yLzWl8NrCPeDtNDpXqmozR8PntQ==
-----END CERTIFICATE-----
