Certificate:
    Data:
        Version: 3 (0x2)
        Serial Number: 4097 (0x1001)
    Signature Algorithm: sha256WithRSAEncryption
        Issuer: C=US, ST=NY, L=Syracuse, O=SEEDLABS, OU=PKI-Lab, CN=Chirag
        Validity
            Not Before: Apr 18 19:17:31 2019 GMT
            Not After : Apr 17 19:17:31 2020 GMT
        Subject: C=US, ST=NY, L=Syr, O=PKILAB, OU=Chirag, CN=example.com
        Subject Public Key Info:
            Public Key Algorithm: rsaEncryption
                Public-Key: (1024 bit)
                Modulus:
                    00:da:7f:23:8d:74:45:8a:71:9e:87:32:27:81:c3:
                    cd:a2:bc:d3:3c:0b:eb:7e:57:4e:19:50:6b:ab:e7:
                    cd:bf:38:db:1d:52:24:b3:02:94:56:10:e0:0c:e3:
                    65:29:9f:5e:4f:33:10:b8:7f:4a:0b:70:f6:cb:69:
                    26:52:9e:30:2b:48:d5:df:d1:57:3f:0a:2a:bc:66:
                    c4:37:7d:27:63:de:ec:f0:04:f7:81:31:d8:a3:8d:
                    a2:65:78:ef:d9:6f:0a:e6:6d:1e:cd:d4:26:cd:e5:
                    4d:09:9d:ea:7b:9f:c6:6d:cf:02:90:ec:d1:6d:d1:
                    90:8e:67:85:83:a4:52:9e:35
                Exponent: 65537 (0x10001)
        X509v3 extensions:
            X509v3 Basic Constraints: 
                CA:FALSE
            Netscape Comment: 
                OpenSSL Generated Certificate
            X509v3 Subject Key Identifier: 
                D8:64:99:B7:83:2F:6D:BF:CD:69:57:7A:74:FA:27:DC:7F:A5:C2:D0
            X509v3 Authority Key Identifier: 
                keyid:CC:CE:04:2E:AE:24:0A:11:B3:62:DA:91:68:6E:37:4F:A8:A3:41:89

    Signature Algorithm: sha256WithRSAEncryption
         50:06:c4:7e:f1:27:98:7a:48:9a:66:42:84:d6:a8:86:ff:72:
         5a:14:e4:4c:7b:ef:7a:da:5f:07:5e:9a:74:6f:b2:4c:8e:e1:
         0f:03:66:72:88:99:a4:2c:50:66:0a:32:23:04:de:56:45:be:
         8b:ea:b3:f7:49:e0:48:4a:72:a3:da:cf:b6:e3:74:cd:bc:f0:
         0e:59:4f:42:2d:98:97:2d:a6:a9:52:4e:1b:ac:9e:aa:59:86:
         ff:c8:58:0c:0b:0d:83:bc:8c:dd:de:77:62:49:3b:ca:1d:68:
         a8:c5:49:37:b6:4a:9f:f1:ca:49:8f:b1:2b:72:7b:ef:9e:74:
         8c:2e:91:f5:a7:bc:4b:20:11:55:e6:ad:0f:b4:cd:3d:d4:be:
         74:4f:e3:37:f1:10:ec:09:c3:1f:b2:3c:bb:46:be:59:30:a0:
         82:5a:53:4b:ed:32:87:ed:cc:60:0e:54:55:8a:65:ce:9f:be:
         6f:42:5e:2f:c3:c1:56:1e:b0:9a:ec:bb:b6:15:be:c7:65:f1:
         ed:c6:97:63:28:18:ef:b4:37:76:45:5f:a9:5e:4d:4a:c2:f3:
         58:07:6f:1e:61:a1:79:6d:ae:b4:e7:59:a3:5e:a1:64:47:57:
         7f:f4:58:71:ff:f4:b7:58:31:aa:bd:fb:da:26:50:c1:73:1d:
         64:45:cb:35
-----BEGIN CERTIFICATE-----
MIIDNjCCAh6gAwIBAgICEAEwDQYJKoZIhvcNAQELBQAwYzELMAkGA1UEBhMCVVMx
CzAJBgNVBAgMAk5ZMREwDwYDVQQHDAhTeXJhY3VzZTERMA8GA1UECgwIU0VFRExB
QlMxEDAOBgNVBAsMB1BLSS1MYWIxDzANBgNVBAMMBkNoaXJhZzAeFw0xOTA0MTgx
OTE3MzFaFw0yMDA0MTcxOTE3MzFaMGAxCzAJBgNVBAYTAlVTMQswCQYDVQQIDAJO
WTEMMAoGA1UEBwwDU3lyMQ8wDQYDVQQKDAZQS0lMQUIxDzANBgNVBAsMBkNoaXJh
ZzEUMBIGA1UEAwwLZXhhbXBsZS5jb20wgZ8wDQYJKoZIhvcNAQEBBQADgY0AMIGJ
AoGBANp/I410RYpxnocyJ4HDzaK80zwL635XThlQa6vnzb842x1SJLMClFYQ4Azj
ZSmfXk8zELh/Sgtw9stpJlKeMCtI1d/RVz8KKrxmxDd9J2Pe7PAE94Ex2KONomV4
79lvCuZtHs3UJs3lTQmd6nufxm3PApDs0W3RkI5nhYOkUp41AgMBAAGjezB5MAkG
A1UdEwQCMAAwLAYJYIZIAYb4QgENBB8WHU9wZW5TU0wgR2VuZXJhdGVkIENlcnRp
ZmljYXRlMB0GA1UdDgQWBBTYZJm3gy9tv81pV3p0+ifcf6XC0DAfBgNVHSMEGDAW
gBTMzgQuriQKEbNi2pFobjdPqKNBiTANBgkqhkiG9w0BAQsFAAOCAQEAUAbEfvEn
mHpImmZChNaohv9yWhTkTHvvetpfB16adG+yTI7hDwNmcoiZpCxQZgoyIwTeVkW+
i+qz90ngSEpyo9rPtuN0zbzwDllPQi2Yly2mqVJOG6yeqlmG/8hYDAsNg7yM3d53
Ykk7yh1oqMVJN7ZKn/HKSY+xK3J77550jC6R9ae8SyARVeatD7TNPdS+dE/jN/EQ
7AnDH7I8u0a+WTCgglpTS+0yh+3MYA5UVYplzp++b0JeL8PBVh6wmuy7thW+x2Xx
7caXYygY77Q3dkVfqV5NSsLzWAdvHmGheW2utOdZo16hZEdXf/RYcf/0t1gxqr37
2iZQwXMdZEXLNQ==
-----END CERTIFICATE-----
